target datalayout = "e-m:e-p270:32:32-p271:32:32-p272:64:64-i64:64-i128:128-f80:128-n8:16:32:64-S128"
target triple = "x86_64-pc-linux-gnu"

%struct.Abc_Frame_t_ = type { ptr, ptr, ptr, ptr, ptr, ptr, ptr, ptr, ptr, ptr, i32, i32, i32, i32, i32, ptr, float, float, i32, i32, ptr, ptr, ptr, double, double, ptr, ptr, ptr, ptr, ptr, ptr, ptr, ptr, ptr, ptr, ptr, ptr, float, ptr, i32, ptr, ptr, ptr, ptr, ptr, i32, i32, i32, i32, i32, i32, ptr, ptr, ptr, ptr, ptr, ptr, i32, i32, ptr, ptr, ptr, ptr, ptr, ptr, ptr, ptr, ptr, ptr, ptr, ptr, ptr, ptr, ptr, ptr, ptr, ptr, ptr, ptr, ptr, ptr, ptr, ptr, ptr, ptr, ptr, ptr, ptr, ptr }
%struct.Vec_Int_t_ = type { i32, i32, ptr }
%struct.Abc_Ntk_t_ = type { i32, i32, ptr, ptr, ptr, ptr, ptr, ptr, ptr, ptr, ptr, ptr, ptr, [11 x i32], i32, i32, i32, i32, ptr, i32, ptr, ptr, i32, i32, i32, double, i32, %struct.Vec_Int_t_, ptr, ptr, ptr, ptr, ptr, float, i32, ptr, ptr, ptr, ptr, ptr, ptr, ptr, ptr, ptr, ptr, ptr, ptr, ptr, ptr, ptr, ptr, ptr, ptr, ptr, ptr, ptr, ptr }

@.str.4 = private unnamed_addr constant [10 x i8] c"savesteps\00", align 1

; Function Attrs: inlinehint nounwind uwtable
define internal ptr @Abc_NtkBackup(ptr noundef %0) #1 {
  %2 = alloca ptr, align 8
  store ptr %0, ptr %2, align 8, !tbaa !108
  %3 = load ptr, ptr %2, align 8, !tbaa !108
  %4 = getelementptr inbounds nuw %struct.Abc_Ntk_t_, ptr %3, i32 0, i32 18
  %5 = load ptr, ptr %4, align 8, !tbaa !113
  ret ptr %5
}

; Function Attrs: inlinehint nounwind willreturn memory(read) uwtable
define available_externally i32 @atoi(ptr noundef nonnull %0) #7 {
  %2 = alloca ptr, align 8
  store ptr %0, ptr %2, align 8, !tbaa !38
  %3 = load ptr, ptr %2, align 8, !tbaa !38
  %4 = call i64 @strtol(ptr noundef %3, ptr noundef null, i32 noundef 10) #10
  %5 = trunc i64 %4 to i32
  ret i32 %5
}

; Function Attrs: inlinehint nounwind uwtable
define internal void @Abc_NtkSetStep(ptr noundef %0, i32 noundef %1) #1 {
  %3 = alloca ptr, align 8
  %4 = alloca i32, align 4
  store ptr %0, ptr %3, align 8, !tbaa !108
  store i32 %1, ptr %4, align 4, !tbaa !65
  %5 = load i32, ptr %4, align 4, !tbaa !65
  %6 = load ptr, ptr %3, align 8, !tbaa !108
  %7 = getelementptr inbounds nuw %struct.Abc_Ntk_t_, ptr %6, i32 0, i32 19
  store i32 %5, ptr %7, align 8, !tbaa !121
  ret void
}

; Function Attrs: inlinehint nounwind uwtable
define internal void @Abc_NtkSetBackup(ptr noundef %0, ptr noundef %1) #1 {
  %3 = alloca ptr, align 8
  %4 = alloca ptr, align 8
  store ptr %0, ptr %3, align 8, !tbaa !108
  store ptr %1, ptr %4, align 8, !tbaa !108
  %5 = load ptr, ptr %4, align 8, !tbaa !108
  %6 = load ptr, ptr %3, align 8, !tbaa !108
  %7 = getelementptr inbounds nuw %struct.Abc_Ntk_t_, ptr %6, i32 0, i32 18
  store ptr %5, ptr %7, align 8, !tbaa !113
  ret void
}

; Function Attrs: nounwind uwtable
define void @Abc_FrameSetCurrentNetwork(ptr noundef %0, ptr noundef %1) #0 {
  %3 = alloca ptr, align 8
  %4 = alloca ptr, align 8
  %5 = alloca ptr, align 8
  %6 = alloca ptr, align 8
  %7 = alloca ptr, align 8
  %8 = alloca i32, align 4
  %9 = alloca i32, align 4
  %10 = alloca ptr, align 8
  %11 = alloca i32, align 4
  store ptr %0, ptr %3, align 8, !tbaa !3
  store ptr %1, ptr %4, align 8, !tbaa !108
  call void @llvm.lifetime.start.p0(i64 8, ptr %5) #10
  call void @llvm.lifetime.start.p0(i64 8, ptr %6) #10
  call void @llvm.lifetime.start.p0(i64 8, ptr %7) #10
  call void @llvm.lifetime.start.p0(i64 4, ptr %8) #10
  call void @llvm.lifetime.start.p0(i64 4, ptr %9) #10
  call void @llvm.lifetime.start.p0(i64 8, ptr %10) #10
  %12 = load ptr, ptr %3, align 8, !tbaa !3
  %13 = getelementptr inbounds nuw %struct.Abc_Frame_t_, ptr %12, i32 0, i32 6
  %14 = load ptr, ptr %13, align 8, !tbaa !107
  %15 = load ptr, ptr %4, align 8, !tbaa !108
  %16 = icmp eq ptr %14, %15
  br i1 %16, label %17, label %18

17:                                               ; preds = %2
  store i32 1, ptr %11, align 4
  br label %63

18:                                               ; preds = %2
  %19 = load ptr, ptr %4, align 8, !tbaa !108
  %20 = load ptr, ptr %3, align 8, !tbaa !3
  %21 = getelementptr inbounds nuw %struct.Abc_Frame_t_, ptr %20, i32 0, i32 6
  %22 = load ptr, ptr %21, align 8, !tbaa !107
  call void @Abc_NtkSetBackup(ptr noundef %19, ptr noundef %22)
  %23 = load ptr, ptr %4, align 8, !tbaa !108
  %24 = load ptr, ptr %3, align 8, !tbaa !3
  %25 = getelementptr inbounds nuw %struct.Abc_Frame_t_, ptr %24, i32 0, i32 10
  %26 = load i32, ptr %25, align 8, !tbaa !88
  %27 = add nsw i32 %26, 1
  store i32 %27, ptr %25, align 8, !tbaa !88
  call void @Abc_NtkSetStep(ptr noundef %23, i32 noundef %27)
  %28 = load ptr, ptr %4, align 8, !tbaa !108
  %29 = load ptr, ptr %3, align 8, !tbaa !3
  %30 = getelementptr inbounds nuw %struct.Abc_Frame_t_, ptr %29, i32 0, i32 6
  store ptr %28, ptr %30, align 8, !tbaa !107
  %31 = load ptr, ptr %3, align 8, !tbaa !3
  %32 = call ptr @Cmd_FlagReadByName(ptr noundef %31, ptr noundef @.str.4)
  store ptr %32, ptr %10, align 8, !tbaa !38
  %33 = load ptr, ptr %10, align 8, !tbaa !38
  %34 = icmp eq ptr %33, null
  br i1 %34, label %35, label %36

35:                                               ; preds = %18
  store i32 1, ptr %9, align 4, !tbaa !65
  br label %39

36:                                               ; preds = %18
  %37 = load ptr, ptr %10, align 8, !tbaa !38
  %38 = call i32 @atoi(ptr noundef %37) #11
  store i32 %38, ptr %9, align 4, !tbaa !65
  br label %39

39:                                               ; preds = %36, %35
  store i32 0, ptr %8, align 4, !tbaa !65
  store ptr null, ptr %7, align 8, !tbaa !108
  store ptr null, ptr %6, align 8, !tbaa !108
  %40 = load ptr, ptr %3, align 8, !tbaa !3
  %41 = getelementptr inbounds nuw %struct.Abc_Frame_t_, ptr %40, i32 0, i32 6
  %42 = load ptr, ptr %41, align 8, !tbaa !107
  store ptr %42, ptr %5, align 8, !tbaa !108
  br label %43

43:                                               ; preds = %51, %39
  %44 = load ptr, ptr %5, align 8, !tbaa !108
  %45 = icmp ne ptr %44, null
  br i1 %45, label %46, label %54

46:                                               ; preds = %43
  %47 = load i32, ptr %8, align 4, !tbaa !65
  %48 = add nsw i32 %47, 1
  store i32 %48, ptr %8, align 4, !tbaa !65
  %49 = load ptr, ptr %6, align 8, !tbaa !108
  store ptr %49, ptr %7, align 8, !tbaa !108
  %50 = load ptr, ptr %5, align 8, !tbaa !108
  store ptr %50, ptr %6, align 8, !tbaa !108
  br label %51

51:                                               ; preds = %46
  %52 = load ptr, ptr %6, align 8, !tbaa !108
  %53 = call ptr @Abc_NtkBackup(ptr noundef %52)
  store ptr %53, ptr %5, align 8, !tbaa !108
  br label %43, !llvm.loop !112

54:                                               ; preds = %43
  %55 = load i32, ptr %8, align 4, !tbaa !65
  %56 = sub nsw i32 %55, 1
  %57 = load i32, ptr %9, align 4, !tbaa !65
  %58 = icmp sgt i32 %56, %57
  br i1 %58, label %59, label %62

59:                                               ; preds = %54
  %60 = load ptr, ptr %6, align 8, !tbaa !108
  call void @Abc_NtkDelete(ptr noundef %60)
  %61 = load ptr, ptr %7, align 8, !tbaa !108
  call void @Abc_NtkSetBackup(ptr noundef %61, ptr noundef null)
  br label %62

62:                                               ; preds = %59, %54
  store i32 0, ptr %11, align 4
  br label %63

63:                                               ; preds = %62, %17
  call void @llvm.lifetime.end.p0(i64 8, ptr %10) #10
  call void @llvm.lifetime.end.p0(i64 4, ptr %9) #10
  call void @llvm.lifetime.end.p0(i64 4, ptr %8) #10
  call void @llvm.lifetime.end.p0(i64 8, ptr %7) #10
  call void @llvm.lifetime.end.p0(i64 8, ptr %6) #10
  call void @llvm.lifetime.end.p0(i64 8, ptr %5) #10
  %64 = load i32, ptr %11, align 4
  switch i32 %64, label %66 [
    i32 0, label %65
    i32 1, label %65
  ]

65:                                               ; preds = %63, %63
  ret void

66:                                               ; preds = %63
  unreachable
}