; Function Attrs: nounwind uwtable
define void @Abc_FrameSetCurrentNetwork(ptr noundef %0, ptr noundef %1) local_unnamed_addr #1 {
  %3 = getelementptr inbounds nuw i8, ptr %0, i64 48
  %4 = load ptr, ptr %3, align 8, !tbaa !96
  %5 = icmp eq ptr %4, %1
  br i1 %5, label %23, label %6

6:                                                ; preds = %2
  %7 = getelementptr inbounds nuw i8, ptr %1, i64 160
  store ptr %4, ptr %7, align 8, !tbaa !97
  %8 = getelementptr inbounds nuw i8, ptr %0, i64 80
  %9 = load i32, ptr %8, align 8, !tbaa !82
  %10 = add nsw i32 %9, 1
  store i32 %10, ptr %8, align 8, !tbaa !82
  %11 = getelementptr inbounds nuw i8, ptr %1, i64 168
  store i32 %10, ptr %11, align 8, !tbaa !109
  store ptr %1, ptr %3, align 8, !tbaa !96
  %12 = tail call ptr @Cmd_FlagReadByName(ptr noundef nonnull %0, ptr noundef nonnull @.str.4) #20
  %13 = icmp eq ptr %12, null
  br i1 %13, label %17, label %14

14:                                               ; preds = %6
  %15 = tail call i64 @strtol(ptr noundef nonnull captures(none) %12, ptr noundef null, i32 noundef 10) #20
  %16 = trunc i64 %15 to i32
  br label %17

17:                                               ; preds = %6, %14
  %.020 = phi i32 [ %16, %14 ], [ 1, %6 ]
  %.027 = load ptr, ptr %3, align 8, !tbaa !110
  %.not28 = icmp eq ptr %.027, null
  br i1 %.not28, label %._crit_edge, label %.lr.ph

.lr.ph:                                           ; preds = %17, %.lr.ph
  %.031 = phi ptr [ %.0, %.lr.ph ], [ %.027, %17 ]
  %.02130 = phi i32 [ %18, %.lr.ph ], [ 0, %17 ]
  %.02329 = phi ptr [ %.031, %.lr.ph ], [ null, %17 ]
  %18 = add nuw nsw i32 %.02130, 1
  %19 = getelementptr i8, ptr %.031, i64 160
  %.0 = load ptr, ptr %19, align 8, !tbaa !110
  %.not = icmp eq ptr %.0, null
  br i1 %.not, label %._crit_edge, label %.lr.ph, !llvm.loop !111

._crit_edge:                                      ; preds = %.lr.ph, %17
  %.023.lcssa = phi ptr [ null, %17 ], [ %.031, %.lr.ph ]
  %.022.lcssa = phi ptr [ null, %17 ], [ %.02329, %.lr.ph ]
  %.021.lcssa = phi i32 [ -1, %17 ], [ %.02130, %.lr.ph ]
  %20 = icmp sgt i32 %.021.lcssa, %.020
  br i1 %20, label %21, label %23

21:                                               ; preds = %._crit_edge
  tail call void @Abc_NtkDelete(ptr noundef %.023.lcssa) #20
  %22 = getelementptr inbounds nuw i8, ptr %.022.lcssa, i64 160
  store ptr null, ptr %22, align 8, !tbaa !97
  br label %23

23:                                               ; preds = %._crit_edge, %21, %2
  ret void
}